; ModuleID = '35/1302.c'
source_filename = "35/1302.c"
target datalayout = "e-m:e-p270:32:32-p271:32:32-p272:64:64-i64:64-f80:128-n8:16:32:64-S128"
target triple = "x86_64-pc-linux-gnu"

@.str = private unnamed_addr constant [6 x i8] c"%d,%d\00", align 1
@.str.1 = private unnamed_addr constant [3 x i8] c"%d\00", align 1
@.str.2 = private unnamed_addr constant [6 x i8] c"%d+%d\00", align 1
@.str.3 = private unnamed_addr constant [3 x i8] c"No\00", align 1

; Function Attrs: noinline nounwind uwtable
define dso_local i32 @main() #0 {
  %1 = alloca i32, align 4
  %2 = alloca [8 x [8 x i32]], align 16
  %3 = alloca i32, align 4
  %4 = alloca i32, align 4
  %5 = alloca i32, align 4
  %6 = alloca i32, align 4
  %7 = alloca i32, align 4
  %8 = alloca i32, align 4
  %9 = alloca i32, align 4
  %10 = alloca i32, align 4
  %11 = alloca i32, align 4
  %12 = alloca i32, align 4
  %13 = alloca i32, align 4
  %14 = alloca i32, align 4
  %15 = alloca i32, align 4
  %16 = alloca i32, align 4
  %17 = alloca i32, align 4
  store i32 0, i32* %1, align 4
  store i32 0, i32* %9, align 4
  store i32 0, i32* %10, align 4
  store i32 0, i32* %11, align 4
  store i32 0, i32* %12, align 4
  store i32 0, i32* %13, align 4
  store i32 0, i32* %14, align 4
  store i32 0, i32* %15, align 4
  %18 = call i32 (i8*, ...) @__isoc99_scanf(i8* getelementptr inbounds ([6 x i8], [6 x i8]* @.str, i64 0, i64 0), i32* %3, i32* %4)
  store i32 0, i32* %5, align 4
  br label %19

19:                                               ; preds = %40, %0
  %20 = load i32, i32* %5, align 4
  %21 = load i32, i32* %3, align 4
  %22 = icmp slt i32 %20, %21
  br i1 %22, label %23, label %43

23:                                               ; preds = %19
  store i32 0, i32* %6, align 4
  br label %24

24:                                               ; preds = %36, %23
  %25 = load i32, i32* %6, align 4
  %26 = load i32, i32* %4, align 4
  %27 = icmp slt i32 %25, %26
  br i1 %27, label %28, label %39

28:                                               ; preds = %24
  %29 = load i32, i32* %5, align 4
  %30 = sext i32 %29 to i64
  %31 = getelementptr inbounds [8 x [8 x i32]], [8 x [8 x i32]]* %2, i64 0, i64 %30
  %32 = load i32, i32* %6, align 4
  %33 = sext i32 %32 to i64
  %34 = getelementptr inbounds [8 x i32], [8 x i32]* %31, i64 0, i64 %33
  %35 = call i32 (i8*, ...) @__isoc99_scanf(i8* getelementptr inbounds ([3 x i8], [3 x i8]* @.str.1, i64 0, i64 0), i32* %34)
  br label %36

36:                                               ; preds = %28
  %37 = load i32, i32* %6, align 4
  %38 = add nsw i32 %37, 1
  store i32 %38, i32* %6, align 4
  br label %24

39:                                               ; preds = %24
  br label %40

40:                                               ; preds = %39
  %41 = load i32, i32* %5, align 4
  %42 = add nsw i32 %41, 1
  store i32 %42, i32* %5, align 4
  br label %19

43:                                               ; preds = %19
  store i32 0, i32* %5, align 4
  br label %44

44:                                               ; preds = %152, %43
  %45 = load i32, i32* %5, align 4
  %46 = load i32, i32* %3, align 4
  %47 = icmp slt i32 %45, %46
  br i1 %47, label %48, label %155

48:                                               ; preds = %44
  store i32 0, i32* %6, align 4
  br label %49

49:                                               ; preds = %83, %48
  %50 = load i32, i32* %6, align 4
  %51 = load i32, i32* %4, align 4
  %52 = icmp slt i32 %50, %51
  br i1 %52, label %53, label %86

53:                                               ; preds = %49
  %54 = load i32, i32* %6, align 4
  %55 = icmp eq i32 %54, 0
  br i1 %55, label %56, label %62

56:                                               ; preds = %53
  %57 = load i32, i32* %5, align 4
  %58 = sext i32 %57 to i64
  %59 = getelementptr inbounds [8 x [8 x i32]], [8 x [8 x i32]]* %2, i64 0, i64 %58
  %60 = getelementptr inbounds [8 x i32], [8 x i32]* %59, i64 0, i64 0
  %61 = load i32, i32* %60, align 16
  store i32 %61, i32* %9, align 4
  store i32 0, i32* %16, align 4
  br label %82

62:                                               ; preds = %53
  %63 = load i32, i32* %5, align 4
  %64 = sext i32 %63 to i64
  %65 = getelementptr inbounds [8 x [8 x i32]], [8 x [8 x i32]]* %2, i64 0, i64 %64
  %66 = load i32, i32* %6, align 4
  %67 = sext i32 %66 to i64
  %68 = getelementptr inbounds [8 x i32], [8 x i32]* %65, i64 0, i64 %67
  %69 = load i32, i32* %68, align 4
  %70 = load i32, i32* %9, align 4
  %71 = icmp sgt i32 %69, %70
  br i1 %71, label %72, label %81

72:                                               ; preds = %62
  %73 = load i32, i32* %5, align 4
  %74 = sext i32 %73 to i64
  %75 = getelementptr inbounds [8 x [8 x i32]], [8 x [8 x i32]]* %2, i64 0, i64 %74
  %76 = load i32, i32* %6, align 4
  %77 = sext i32 %76 to i64
  %78 = getelementptr inbounds [8 x i32], [8 x i32]* %75, i64 0, i64 %77
  %79 = load i32, i32* %78, align 4
  store i32 %79, i32* %9, align 4
  %80 = load i32, i32* %6, align 4
  store i32 %80, i32* %16, align 4
  br label %81

81:                                               ; preds = %72, %62
  br label %82

82:                                               ; preds = %81, %56
  br label %83

83:                                               ; preds = %82
  %84 = load i32, i32* %6, align 4
  %85 = add nsw i32 %84, 1
  store i32 %85, i32* %6, align 4
  br label %49

86:                                               ; preds = %49
  store i32 0, i32* %7, align 4
  br label %87

87:                                               ; preds = %148, %86
  %88 = load i32, i32* %7, align 4
  %89 = load i32, i32* %4, align 4
  %90 = icmp slt i32 %88, %89
  br i1 %90, label %91, label %151

91:                                               ; preds = %87
  store i32 0, i32* %8, align 4
  br label %92

92:                                               ; preds = %126, %91
  %93 = load i32, i32* %8, align 4
  %94 = load i32, i32* %3, align 4
  %95 = icmp slt i32 %93, %94
  br i1 %95, label %96, label %129

96:                                               ; preds = %92
  %97 = load i32, i32* %8, align 4
  %98 = icmp eq i32 %97, 0
  br i1 %98, label %99, label %105

99:                                               ; preds = %96
  %100 = getelementptr inbounds [8 x [8 x i32]], [8 x [8 x i32]]* %2, i64 0, i64 0
  %101 = load i32, i32* %7, align 4
  %102 = sext i32 %101 to i64
  %103 = getelementptr inbounds [8 x i32], [8 x i32]* %100, i64 0, i64 %102
  %104 = load i32, i32* %103, align 4
  store i32 %104, i32* %14, align 4
  store i32 0, i32* %17, align 4
  br label %125

105:                                              ; preds = %96
  %106 = load i32, i32* %8, align 4
  %107 = sext i32 %106 to i64
  %108 = getelementptr inbounds [8 x [8 x i32]], [8 x [8 x i32]]* %2, i64 0, i64 %107
  %109 = load i32, i32* %7, align 4
  %110 = sext i32 %109 to i64
  %111 = getelementptr inbounds [8 x i32], [8 x i32]* %108, i64 0, i64 %110
  %112 = load i32, i32* %111, align 4
  %113 = load i32, i32* %14, align 4
  %114 = icmp slt i32 %112, %113
  br i1 %114, label %115, label %124

115:                                              ; preds = %105
  %116 = load i32, i32* %8, align 4
  %117 = sext i32 %116 to i64
  %118 = getelementptr inbounds [8 x [8 x i32]], [8 x [8 x i32]]* %2, i64 0, i64 %117
  %119 = load i32, i32* %7, align 4
  %120 = sext i32 %119 to i64
  %121 = getelementptr inbounds [8 x i32], [8 x i32]* %118, i64 0, i64 %120
  %122 = load i32, i32* %121, align 4
  store i32 %122, i32* %14, align 4
  %123 = load i32, i32* %8, align 4
  store i32 %123, i32* %17, align 4
  br label %124

124:                                              ; preds = %115, %105
  br label %125

125:                                              ; preds = %124, %99
  br label %126

126:                                              ; preds = %125
  %127 = load i32, i32* %8, align 4
  %128 = add nsw i32 %127, 1
  store i32 %128, i32* %8, align 4
  br label %92

129:                                              ; preds = %92
  %130 = load i32, i32* %9, align 4
  %131 = load i32, i32* %14, align 4
  %132 = icmp eq i32 %130, %131
  br i1 %132, label %133, label %147

133:                                              ; preds = %129
  %134 = load i32, i32* %5, align 4
  %135 = load i32, i32* %17, align 4
  %136 = icmp eq i32 %134, %135
  br i1 %136, label %137, label %147

137:                                              ; preds = %133
  %138 = load i32, i32* %16, align 4
  %139 = load i32, i32* %7, align 4
  %140 = icmp eq i32 %138, %139
  br i1 %140, label %141, label %147

141:                                              ; preds = %137
  %142 = load i32, i32* %17, align 4
  %143 = load i32, i32* %16, align 4
  %144 = call i32 (i8*, ...) @printf(i8* getelementptr inbounds ([6 x i8], [6 x i8]* @.str.2, i64 0, i64 0), i32 %142, i32 %143)
  %145 = load i32, i32* %15, align 4
  %146 = add nsw i32 %145, 1
  store i32 %146, i32* %15, align 4
  store i32 0, i32* %9, align 4
  store i32 100, i32* %14, align 4
  br label %147

147:                                              ; preds = %141, %137, %133, %129
  br label %148

148:                                              ; preds = %147
  %149 = load i32, i32* %7, align 4
  %150 = add nsw i32 %149, 1
  store i32 %150, i32* %7, align 4
  br label %87

151:                                              ; preds = %87
  br label %152

152:                                              ; preds = %151
  %153 = load i32, i32* %5, align 4
  %154 = add nsw i32 %153, 1
  store i32 %154, i32* %5, align 4
  br label %44

155:                                              ; preds = %44
  %156 = load i32, i32* %15, align 4
  %157 = icmp eq i32 %156, 0
  br i1 %157, label %158, label %160

158:                                              ; preds = %155
  %159 = call i32 (i8*, ...) @printf(i8* getelementptr inbounds ([3 x i8], [3 x i8]* @.str.3, i64 0, i64 0))
  br label %160

160:                                              ; preds = %158, %155
  ret i32 0
}

declare dso_local i32 @__isoc99_scanf(i8*, ...) #1

declare dso_local i32 @printf(i8*, ...) #1


!llvm.module.flags = !{!0}
!llvm.ident = !{!1}

!0 = !{i32 1, !"wchar_size", i32 4}
!1 = !{!"clang version 10.0.0-4ubuntu1 "}
